target datalayout = "e-m:e-p270:32:32-p271:32:32-p272:64:64-i64:64-i128:128-f80:128-n8:16:32:64-S128"
target triple = "x86_64-pc-linux-gnu"

%"class.clang::interp::IntegralAP" = type { %"class.llvm::APInt" }
%"class.llvm::APInt" = type <{ %union.anon.43, i32, [4 x i8] }>
%union.anon.43 = type { i64 }

; Function Attrs: mustprogress nounwind uwtable
define linkonce_odr hidden void @_ZN4llvm5APIntC2EOS0_(ptr noundef nonnull align 8 dereferenceable(12) %0, ptr noundef nonnull align 8 dereferenceable(12) %1) unnamed_addr #0 comdat align 2 {
  %3 = alloca ptr, align 8
  %4 = alloca ptr, align 8
  store ptr %0, ptr %3, align 8
  store ptr %1, ptr %4, align 8
  %5 = load ptr, ptr %3, align 8
  %6 = getelementptr inbounds nuw %"class.llvm::APInt", ptr %5, i32 0, i32 1
  %7 = load ptr, ptr %4, align 8
  %8 = getelementptr inbounds nuw %"class.llvm::APInt", ptr %7, i32 0, i32 1
  %9 = load i32, ptr %8, align 8
  store i32 %9, ptr %6, align 8
  %10 = getelementptr inbounds nuw %"class.llvm::APInt", ptr %5, i32 0, i32 0
  %11 = load ptr, ptr %4, align 8
  %12 = getelementptr inbounds nuw %"class.llvm::APInt", ptr %11, i32 0, i32 0
  call void @llvm.memcpy.p0.p0.i64(ptr align 8 %10, ptr align 8 %12, i64 8, i1 false)
  %13 = load ptr, ptr %4, align 8
  %14 = getelementptr inbounds nuw %"class.llvm::APInt", ptr %13, i32 0, i32 1
  store i32 0, ptr %14, align 8
  ret void
}

; Function Attrs: mustprogress nounwind uwtable
define linkonce_odr hidden void @_ZN5clang6interp10IntegralAPILb0EEC2EOS2_(ptr noundef nonnull align 8 dereferenceable(16) %0, ptr noundef nonnull align 8 dereferenceable(16) %1) unnamed_addr #0 comdat align 2 {
  %3 = alloca ptr, align 8
  %4 = alloca ptr, align 8
  store ptr %0, ptr %3, align 8
  store ptr %1, ptr %4, align 8
  %5 = load ptr, ptr %3, align 8
  %6 = getelementptr inbounds nuw %"class.clang::interp::IntegralAP", ptr %5, i32 0, i32 0
  %7 = load ptr, ptr %4, align 8
  %8 = getelementptr inbounds nuw %"class.clang::interp::IntegralAP", ptr %7, i32 0, i32 0
  call void @_ZN4llvm5APIntC2EOS0_(ptr noundef nonnull align 8 dereferenceable(12) %6, ptr noundef nonnull align 8 dereferenceable(12) %8)
  ret void
}

; Function Attrs: mustprogress nounwind uwtable
define internal void @_ZL6moveTyIN5clang6interp10IntegralAPILb0EEEEvPNS1_5BlockEPSt4byteS7_PKNS1_10DescriptorE(ptr noundef %0, ptr noundef %1, ptr noundef %2, ptr noundef %3) #0 {
  %5 = alloca ptr, align 8
  %6 = alloca ptr, align 8
  %7 = alloca ptr, align 8
  %8 = alloca ptr, align 8
  %9 = alloca ptr, align 8
  %10 = alloca ptr, align 8
  store ptr %0, ptr %5, align 8
  store ptr %1, ptr %6, align 8
  store ptr %2, ptr %7, align 8
  store ptr %3, ptr %8, align 8
  %11 = load ptr, ptr %6, align 8
  store ptr %11, ptr %9, align 8
  %12 = load ptr, ptr %7, align 8
  store ptr %12, ptr %10, align 8
  %13 = load ptr, ptr %10, align 8
  %14 = load ptr, ptr %9, align 8
  call void @_ZN5clang6interp10IntegralAPILb0EEC2EOS2_(ptr noundef nonnull align 8 dereferenceable(16) %13, ptr noundef nonnull align 8 dereferenceable(16) %14)
  ret void
}