; Function Attrs: mustprogress nofree norecurse nosync nounwind willreturn memory(argmem: readwrite) uwtable
define internal void @_ZL6moveTyIN5clang6interp10IntegralAPILb0EEEEvPNS1_5BlockEPSt4byteS7_PKNS1_10DescriptorE(ptr nocapture readnone %0, ptr nocapture noundef %1, ptr nocapture noundef writeonly %2, ptr nocapture readnone %3) #3 {
  %5 = getelementptr inbounds nuw i8, ptr %2, i64 8
  %6 = getelementptr inbounds nuw i8, ptr %1, i64 8
  %7 = load i32, ptr %6, align 8
  store i32 %7, ptr %5, align 8
  %8 = load i64, ptr %1, align 8
  store i64 %8, ptr %2, align 8
  store i32 0, ptr %6, align 8
  ret void
}